target datalayout = "e-m:e-p270:32:32-p271:32:32-p272:64:64-i64:64-i128:128-f80:128-n8:16:32:64-S128"
target triple = "x86_64-pc-linux-gnu"

%struct._typeobject = type { %struct.PyVarObject, ptr, i64, i64, ptr, i64, ptr, ptr, ptr, ptr, ptr, ptr, ptr, ptr, ptr, ptr, ptr, ptr, ptr, i64, ptr, ptr, ptr, ptr, i64, ptr, ptr, ptr, ptr, ptr, ptr, ptr, ptr, ptr, i64, ptr, ptr, ptr, ptr, ptr, ptr, ptr, ptr, ptr, ptr, ptr, i32, ptr, ptr, i8, i16 }
%struct.PyVarObject = type { %struct._object, i64 }
%struct._object = type { %union.anon, ptr }
%union.anon = type { i64 }
%struct._Py_BackoffCounter = type { i16 }
%union._Py_CODEUNIT = type { i16 }
%struct.anon = type { i8, i8 }
%struct._PyLoadMethodCache = type { %struct._Py_BackoffCounter, [2 x i16], %union.anon.807, [4 x i16] }
%union.anon.807 = type { [2 x i16] }

; Function Attrs: inlinehint nounwind uwtable
define internal i16 @make_backoff_counter(i16 noundef zeroext %0, i16 noundef zeroext %1) #2 {
  %3 = alloca %struct._Py_BackoffCounter, align 2
  %4 = alloca i16, align 2
  %5 = alloca i16, align 2
  store i16 %0, ptr %4, align 2, !tbaa !13
  store i16 %1, ptr %5, align 2, !tbaa !13
  %6 = load i16, ptr %4, align 2, !tbaa !13
  %7 = zext i16 %6 to i32
  %8 = shl i32 %7, 4
  %9 = load i16, ptr %5, align 2, !tbaa !13
  %10 = zext i16 %9 to i32
  %11 = or i32 %8, %10
  %12 = trunc i32 %11 to i16
  %13 = getelementptr inbounds nuw %struct._Py_BackoffCounter, ptr %3, i32 0, i32 0
  store i16 %12, ptr %13, align 2, !tbaa !187
  %14 = getelementptr inbounds nuw %struct._Py_BackoffCounter, ptr %3, i32 0, i32 0
  %15 = load i16, ptr %14, align 2
  ret i16 %15
}

; Function Attrs: inlinehint nounwind uwtable
define internal i16 @adaptive_counter_bits(i16 noundef zeroext %0, i16 noundef zeroext %1) #2 {
  %3 = alloca %struct._Py_BackoffCounter, align 2
  %4 = alloca i16, align 2
  %5 = alloca i16, align 2
  store i16 %0, ptr %4, align 2, !tbaa !13
  store i16 %1, ptr %5, align 2, !tbaa !13
  %6 = load i16, ptr %4, align 2, !tbaa !13
  %7 = load i16, ptr %5, align 2, !tbaa !13
  %8 = call i16 @make_backoff_counter(i16 noundef zeroext %6, i16 noundef zeroext %7)
  %9 = getelementptr inbounds nuw %struct._Py_BackoffCounter, ptr %3, i32 0, i32 0
  store i16 %8, ptr %9, align 2
  %10 = getelementptr inbounds nuw %struct._Py_BackoffCounter, ptr %3, i32 0, i32 0
  %11 = load i16, ptr %10, align 2
  ret i16 %11
}

; Function Attrs: inlinehint nounwind uwtable
define internal void @set_counter(ptr noundef %0, i16 %1) #2 {
  %3 = alloca %struct._Py_BackoffCounter, align 2
  %4 = alloca ptr, align 8
  %5 = getelementptr inbounds nuw %struct._Py_BackoffCounter, ptr %3, i32 0, i32 0
  store i16 %1, ptr %5, align 2
  store ptr %0, ptr %4, align 8, !tbaa !4
  %6 = getelementptr inbounds nuw %struct._Py_BackoffCounter, ptr %3, i32 0, i32 0
  %7 = load i16, ptr %6, align 2, !tbaa !187
  %8 = load ptr, ptr %4, align 8, !tbaa !4
  %9 = getelementptr inbounds nuw %struct._Py_BackoffCounter, ptr %8, i32 0, i32 0
  store i16 %7, ptr %9, align 2, !tbaa !187
  ret void
}

; Function Attrs: inlinehint nounwind uwtable
define internal i16 @adaptive_counter_cooldown() #2 {
  %1 = alloca %struct._Py_BackoffCounter, align 2
  %2 = call i16 @adaptive_counter_bits(i16 noundef zeroext 52, i16 noundef zeroext 0)
  %3 = getelementptr inbounds nuw %struct._Py_BackoffCounter, ptr %1, i32 0, i32 0
  store i16 %2, ptr %3, align 2
  %4 = getelementptr inbounds nuw %struct._Py_BackoffCounter, ptr %1, i32 0, i32 0
  %5 = load i16, ptr %4, align 2
  ret i16 %5
}

; Function Attrs: inlinehint nounwind uwtable
define internal i32 @set_opcode(ptr noundef %0, i8 noundef zeroext %1) #2 {
  %3 = alloca ptr, align 8
  %4 = alloca i8, align 1
  store ptr %0, ptr %3, align 8, !tbaa !4
  store i8 %1, ptr %4, align 1, !tbaa !15
  %5 = load i8, ptr %4, align 1, !tbaa !15
  %6 = load ptr, ptr %3, align 8, !tbaa !4
  %7 = getelementptr inbounds nuw %struct.anon, ptr %6, i32 0, i32 0
  store i8 %5, ptr %7, align 2, !tbaa !15
  ret i32 1
}

; Function Attrs: inlinehint nounwind uwtable
define internal void @write_ptr(ptr noundef %0, ptr noundef %1) #2 {
  %3 = alloca ptr, align 8
  %4 = alloca ptr, align 8
  store ptr %0, ptr %3, align 8, !tbaa !55
  store ptr %1, ptr %4, align 8, !tbaa !4
  %5 = load ptr, ptr %3, align 8, !tbaa !55
  call void @llvm.memcpy.p0.p0.i64(ptr align 2 %5, ptr align 8 %4, i64 8, i1 false)
  ret void
}

; Function Attrs: inlinehint nounwind uwtable
define internal void @specialize(ptr noundef %0, i8 noundef zeroext %1) #2 {
  %3 = alloca ptr, align 8
  %4 = alloca i8, align 1
  %5 = alloca %struct._Py_BackoffCounter, align 2
  store ptr %0, ptr %3, align 8, !tbaa !4
  store i8 %1, ptr %4, align 1, !tbaa !15
  %6 = load ptr, ptr %3, align 8, !tbaa !4
  %7 = load i8, ptr %4, align 1, !tbaa !15
  %8 = call i32 @set_opcode(ptr noundef %6, i8 noundef zeroext %7)
  %9 = icmp ne i32 %8, 0
  br i1 %9, label %11, label %10

10:                                               ; preds = %2
  br label %18

11:                                               ; preds = %2
  %12 = load ptr, ptr %3, align 8, !tbaa !4
  %13 = getelementptr %struct._Py_BackoffCounter, ptr %12, i64 1
  %14 = call i16 @adaptive_counter_cooldown()
  %15 = getelementptr inbounds nuw %struct._Py_BackoffCounter, ptr %5, i32 0, i32 0
  store i16 %14, ptr %15, align 2
  %16 = getelementptr inbounds nuw %struct._Py_BackoffCounter, ptr %5, i32 0, i32 0
  %17 = load i16, ptr %16, align 2
  call void @set_counter(ptr noundef %13, i16 %17)
  br label %18

18:                                               ; preds = %11, %10
  ret void
}

; Function Attrs: inlinehint nounwind uwtable
define internal void @write_u32(ptr noundef %0, i32 noundef %1) #2 {
  %3 = alloca ptr, align 8
  %4 = alloca i32, align 4
  store ptr %0, ptr %3, align 8, !tbaa !55
  store i32 %1, ptr %4, align 4, !tbaa !10
  %5 = load ptr, ptr %3, align 8, !tbaa !55
  call void @llvm.memcpy.p0.p0.i64(ptr align 2 %5, ptr align 4 %4, i64 4, i1 false)
  ret void
}

; Function Attrs: inlinehint nounwind uwtable
define internal ptr @_Py_TYPE(ptr noundef %0) #2 {
  %2 = alloca ptr, align 8
  store ptr %0, ptr %2, align 8, !tbaa !18
  %3 = load ptr, ptr %2, align 8, !tbaa !18
  %4 = getelementptr inbounds nuw %struct._object, ptr %3, i32 0, i32 1
  %5 = load ptr, ptr %4, align 8, !tbaa !34
  ret ptr %5
}

; Function Attrs: nounwind uwtable
define internal i32 @specialize_attr_loadclassattr(ptr noundef %0, ptr noundef %1, ptr noundef %2, ptr noundef %3, i32 noundef %4, i32 noundef %5, i1 noundef zeroext %6, i32 noundef %7) #0 {
  %9 = alloca i32, align 4
  %10 = alloca ptr, align 8
  %11 = alloca ptr, align 8
  %12 = alloca ptr, align 8
  %13 = alloca ptr, align 8
  %14 = alloca i32, align 4
  %15 = alloca i32, align 4
  %16 = alloca i8, align 1
  %17 = alloca i32, align 4
  %18 = alloca ptr, align 8
  %19 = alloca ptr, align 8
  %20 = alloca i64, align 8
  %21 = alloca i32, align 4
  %22 = alloca i64, align 8
  %23 = alloca ptr, align 8
  store ptr %0, ptr %10, align 8, !tbaa !18
  store ptr %1, ptr %11, align 8, !tbaa !4
  store ptr %2, ptr %12, align 8, !tbaa !18
  store ptr %3, ptr %13, align 8, !tbaa !18
  store i32 %4, ptr %14, align 4, !tbaa !10
  store i32 %5, ptr %15, align 4, !tbaa !10
  %24 = zext i1 %6 to i8
  store i8 %24, ptr %16, align 1, !tbaa !22
  store i32 %7, ptr %17, align 4, !tbaa !10
  call void @llvm.lifetime.start.p0(i64 8, ptr %18) #7
  %25 = load ptr, ptr %11, align 8, !tbaa !4
  %26 = getelementptr %union._Py_CODEUNIT, ptr %25, i64 1
  store ptr %26, ptr %18, align 8, !tbaa !4
  call void @llvm.lifetime.start.p0(i64 8, ptr %19) #7
  %27 = load ptr, ptr %10, align 8, !tbaa !18
  %28 = call ptr @_Py_TYPE(ptr noundef %27)
  store ptr %28, ptr %19, align 8, !tbaa !20
  call void @llvm.lifetime.start.p0(i64 8, ptr %20) #7
  %29 = load ptr, ptr %19, align 8, !tbaa !20
  %30 = call i64 @PyType_GetFlags(ptr noundef %29)
  store i64 %30, ptr %20, align 8, !tbaa !8
  %31 = load i64, ptr %20, align 8, !tbaa !8
  %32 = and i64 %31, 4
  %33 = icmp ne i64 %32, 0
  br i1 %33, label %34, label %48

34:                                               ; preds = %8
  %35 = load i32, ptr %17, align 4, !tbaa !10
  %36 = icmp eq i32 %35, 0
  br i1 %36, label %37, label %38

37:                                               ; preds = %34
  store i32 0, ptr %9, align 4
  store i32 1, ptr %21, align 4
  br label %110

38:                                               ; preds = %34
  %39 = load ptr, ptr %18, align 8, !tbaa !4
  %40 = getelementptr inbounds nuw %struct._PyLoadMethodCache, ptr %39, i32 0, i32 2
  %41 = getelementptr inbounds [2 x i16], ptr %40, i64 0, i64 0
  %42 = load i32, ptr %17, align 4, !tbaa !10
  call void @write_u32(ptr noundef %41, i32 noundef %42)
  %43 = load ptr, ptr %11, align 8, !tbaa !4
  %44 = load i8, ptr %16, align 1, !tbaa !22, !range !32, !noundef !33
  %45 = trunc i8 %44 to i1
  %46 = select i1 %45, i32 203, i32 206
  %47 = trunc i32 %46 to i8
  call void @specialize(ptr noundef %43, i8 noundef zeroext %47)
  br label %101

48:                                               ; preds = %8
  call void @llvm.lifetime.start.p0(i64 8, ptr %22) #7
  %49 = load i64, ptr %20, align 8, !tbaa !8
  %50 = and i64 %49, 16
  %51 = icmp ne i64 %50, 0
  br i1 %51, label %52, label %53

52:                                               ; preds = %48
  store i64 -24, ptr %22, align 8, !tbaa !8
  br label %64

53:                                               ; preds = %48
  %54 = load ptr, ptr %19, align 8, !tbaa !20
  %55 = getelementptr inbounds nuw %struct._typeobject, ptr %54, i32 0, i32 34
  %56 = load i64, ptr %55, align 8, !tbaa !200
  store i64 %56, ptr %22, align 8, !tbaa !8
  %57 = load i64, ptr %22, align 8, !tbaa !8
  %58 = icmp slt i64 %57, 0
  br i1 %58, label %62, label %59

59:                                               ; preds = %53
  %60 = load i64, ptr %22, align 8, !tbaa !8
  %61 = icmp sgt i64 %60, 32743
  br i1 %61, label %62, label %63

62:                                               ; preds = %59, %53
  store i32 0, ptr %9, align 4
  store i32 1, ptr %21, align 4
  br label %98

63:                                               ; preds = %59
  br label %64

64:                                               ; preds = %63, %52
  %65 = load i64, ptr %22, align 8, !tbaa !8
  %66 = icmp eq i64 %65, 0
  br i1 %66, label %67, label %73

67:                                               ; preds = %64
  %68 = load ptr, ptr %11, align 8, !tbaa !4
  %69 = load i8, ptr %16, align 1, !tbaa !22, !range !32, !noundef !33
  %70 = trunc i8 %69 to i1
  %71 = select i1 %70, i32 202, i32 205
  %72 = trunc i32 %71 to i8
  call void @specialize(ptr noundef %68, i8 noundef zeroext %72)
  br label %97

73:                                               ; preds = %64
  %74 = load i8, ptr %16, align 1, !tbaa !22, !range !32, !noundef !33
  %75 = trunc i8 %74 to i1
  br i1 %75, label %76, label %95

76:                                               ; preds = %73
  call void @llvm.lifetime.start.p0(i64 8, ptr %23) #7
  %77 = load ptr, ptr %10, align 8, !tbaa !18
  %78 = load i64, ptr %22, align 8, !tbaa !8
  %79 = getelementptr i8, ptr %77, i64 %78
  %80 = load ptr, ptr %79, align 8, !tbaa !18
  store ptr %80, ptr %23, align 8, !tbaa !18
  %81 = load ptr, ptr %23, align 8, !tbaa !18
  %82 = icmp ne ptr %81, null
  br i1 %82, label %83, label %84

83:                                               ; preds = %76
  store i32 0, ptr %9, align 4
  store i32 1, ptr %21, align 4
  br label %92

84:                                               ; preds = %76
  %85 = load i64, ptr %22, align 8, !tbaa !8
  %86 = sub i64 %85, -24
  store i64 %86, ptr %22, align 8, !tbaa !8
  %87 = load i64, ptr %22, align 8, !tbaa !8
  %88 = trunc i64 %87 to i16
  %89 = load ptr, ptr %18, align 8, !tbaa !4
  %90 = getelementptr inbounds nuw %struct._PyLoadMethodCache, ptr %89, i32 0, i32 2
  store i16 %88, ptr %90, align 2, !tbaa !15
  %91 = load ptr, ptr %11, align 8, !tbaa !4
  call void @specialize(ptr noundef %91, i8 noundef zeroext -55)
  store i32 0, ptr %21, align 4
  br label %92

92:                                               ; preds = %84, %83
  call void @llvm.lifetime.end.p0(i64 8, ptr %23) #7
  %93 = load i32, ptr %21, align 4
  switch i32 %93, label %98 [
    i32 0, label %94
  ]

94:                                               ; preds = %92
  br label %96

95:                                               ; preds = %73
  store i32 0, ptr %9, align 4
  store i32 1, ptr %21, align 4
  br label %98

96:                                               ; preds = %94
  br label %97

97:                                               ; preds = %96, %67
  store i32 0, ptr %21, align 4
  br label %98

98:                                               ; preds = %97, %95, %92, %62
  call void @llvm.lifetime.end.p0(i64 8, ptr %22) #7
  %99 = load i32, ptr %21, align 4
  switch i32 %99, label %110 [
    i32 0, label %100
  ]

100:                                              ; preds = %98
  br label %101

101:                                              ; preds = %100, %38
  %102 = load ptr, ptr %18, align 8, !tbaa !4
  %103 = getelementptr inbounds nuw %struct._PyLoadMethodCache, ptr %102, i32 0, i32 1
  %104 = getelementptr inbounds [2 x i16], ptr %103, i64 0, i64 0
  %105 = load i32, ptr %14, align 4, !tbaa !10
  call void @write_u32(ptr noundef %104, i32 noundef %105)
  %106 = load ptr, ptr %18, align 8, !tbaa !4
  %107 = getelementptr inbounds nuw %struct._PyLoadMethodCache, ptr %106, i32 0, i32 3
  %108 = getelementptr inbounds [4 x i16], ptr %107, i64 0, i64 0
  %109 = load ptr, ptr %13, align 8, !tbaa !18
  call void @write_ptr(ptr noundef %108, ptr noundef %109)
  store i32 1, ptr %9, align 4
  store i32 1, ptr %21, align 4
  br label %110

110:                                              ; preds = %101, %98, %37
  call void @llvm.lifetime.end.p0(i64 8, ptr %20) #7
  call void @llvm.lifetime.end.p0(i64 8, ptr %19) #7
  call void @llvm.lifetime.end.p0(i64 8, ptr %18) #7
  %111 = load i32, ptr %9, align 4
  ret i32 %111
}