; Function Attrs: nounwind uwtable
define internal fastcc range(i32 0, 2) i32 @specialize_attr_loadclassattr(ptr noundef readonly captures(none) %0, ptr noundef writeonly captures(none) %1, ptr noundef %2, i32 noundef range(i32 1, 0) %3, i1 noundef zeroext %4, i32 noundef %5) unnamed_addr #3 {
  %7 = getelementptr i8, ptr %0, i64 8
  %.val = load ptr, ptr %7, align 8, !tbaa !9
  %8 = tail call i64 @PyType_GetFlags(ptr noundef %.val) #9
  %9 = and i64 %8, 4
  %.not = icmp eq i64 %9, 0
  br i1 %.not, label %15, label %10

10:                                               ; preds = %6
  %11 = icmp eq i32 %5, 0
  br i1 %11, label %.critedge, label %12

12:                                               ; preds = %10
  %13 = getelementptr i8, ptr %1, i64 8
  store i32 %5, ptr %13, align 2
  %14 = select i1 %4, i8 -53, i8 -50
  br label %.critedge39

15:                                               ; preds = %6
  %16 = and i64 %8, 16
  %.not37 = icmp eq i64 %16, 0
  br i1 %.not37, label %17, label %.thread

17:                                               ; preds = %15
  %18 = getelementptr inbounds nuw i8, ptr %.val, i64 288
  %19 = load i64, ptr %18, align 8, !tbaa !183
  %or.cond = icmp ugt i64 %19, 32743
  br i1 %or.cond, label %.critedge, label %20

20:                                               ; preds = %17
  %21 = icmp eq i64 %19, 0
  br i1 %21, label %22, label %.thread

22:                                               ; preds = %20
  %23 = select i1 %4, i8 -54, i8 -51
  br label %.critedge39

.thread:                                          ; preds = %15, %20
  %.0322 = phi i64 [ %19, %20 ], [ -24, %15 ]
  br i1 %4, label %24, label %.critedge

24:                                               ; preds = %.thread
  %25 = getelementptr i8, ptr %0, i64 %.0322
  %26 = load ptr, ptr %25, align 8, !tbaa !55
  %.not38 = icmp eq ptr %26, null
  br i1 %.not38, label %27, label %.critedge

27:                                               ; preds = %24
  %28 = trunc i64 %.0322 to i16
  %29 = add nsw i16 %28, 24
  %30 = getelementptr i8, ptr %1, i64 8
  store i16 %29, ptr %30, align 2, !tbaa !4
  br label %.critedge39

.critedge39:                                      ; preds = %22, %27, %12
  %.sink = phi i8 [ %23, %22 ], [ -55, %27 ], [ %14, %12 ]
  store i8 %.sink, ptr %1, align 2, !tbaa !4
  %31 = getelementptr i8, ptr %1, i64 2
  store i16 832, ptr %31, align 2, !tbaa !24
  %32 = getelementptr i8, ptr %1, i64 4
  store i32 %3, ptr %32, align 2
  %33 = getelementptr i8, ptr %1, i64 12
  store ptr %2, ptr %33, align 2
  br label %.critedge

.critedge:                                        ; preds = %17, %.thread, %24, %10, %.critedge39
  %.0 = phi i32 [ 1, %.critedge39 ], [ 0, %10 ], [ 0, %24 ], [ 0, %.thread ], [ 0, %17 ]
  ret i32 %.0
}